target datalayout = "e-m:e-p270:32:32-p271:32:32-p272:64:64-i64:64-i128:128-f80:128-n8:16:32:64-S128"
target triple = "x86_64-pc-linux-gnu"

%"struct.faiss::IDSelectorRange" = type <{ %"struct.faiss::IDSelector", i64, i64, i8, [7 x i8] }>
%"struct.faiss::IDSelector" = type { ptr }

@_ZTVN5faiss15IDSelectorRangeE = unnamed_addr constant { [5 x ptr] } { [5 x ptr] [ptr null, ptr @_ZTIN5faiss15IDSelectorRangeE, ptr @_ZNK5faiss15IDSelectorRange9is_memberEl, ptr @_ZN5faiss15IDSelectorRangeD2Ev, ptr @_ZN5faiss15IDSelectorRangeD0Ev] }, align 8
@_ZTVN5faiss10IDSelectorE = linkonce_odr unnamed_addr constant { [5 x ptr] } { [5 x ptr] [ptr null, ptr @_ZTIN5faiss10IDSelectorE, ptr @__cxa_pure_virtual, ptr @_ZN5faiss10IDSelectorD2Ev, ptr @_ZN5faiss10IDSelectorD0Ev] }, comdat, align 8

; Function Attrs: mustprogress nounwind uwtable
define linkonce_odr void @_ZN5faiss10IDSelectorC2Ev(ptr noundef nonnull align 8 dereferenceable(8) %0) unnamed_addr #0 comdat align 2 {
  %2 = alloca ptr, align 8
  store ptr %0, ptr %2, align 8
  %3 = load ptr, ptr %2, align 8
  store ptr getelementptr inbounds ({ [5 x ptr] }, ptr @_ZTVN5faiss10IDSelectorE, i32 0, i32 0, i32 2), ptr %3, align 8
  ret void
}

; Function Attrs: mustprogress nounwind uwtable
define void @_ZN5faiss15IDSelectorRangeC2Ellb(ptr noundef nonnull align 8 dereferenceable(25) %0, i64 noundef %1, i64 noundef %2, i1 noundef zeroext %3) unnamed_addr #0 align 2 {
  %5 = alloca ptr, align 8
  %6 = alloca i64, align 8
  %7 = alloca i64, align 8
  %8 = alloca i8, align 1
  store ptr %0, ptr %5, align 8
  store i64 %1, ptr %6, align 8
  store i64 %2, ptr %7, align 8
  %9 = zext i1 %3 to i8
  store i8 %9, ptr %8, align 1
  %10 = load ptr, ptr %5, align 8
  call void @_ZN5faiss10IDSelectorC2Ev(ptr noundef nonnull align 8 dereferenceable(8) %10) #12
  store ptr getelementptr inbounds ({ [5 x ptr] }, ptr @_ZTVN5faiss15IDSelectorRangeE, i32 0, i32 0, i32 2), ptr %10, align 8
  %11 = getelementptr inbounds %"struct.faiss::IDSelectorRange", ptr %10, i32 0, i32 1
  %12 = load i64, ptr %6, align 8
  store i64 %12, ptr %11, align 8
  %13 = getelementptr inbounds %"struct.faiss::IDSelectorRange", ptr %10, i32 0, i32 2
  %14 = load i64, ptr %7, align 8
  store i64 %14, ptr %13, align 8
  %15 = getelementptr inbounds %"struct.faiss::IDSelectorRange", ptr %10, i32 0, i32 3
  %16 = load i8, ptr %8, align 1
  %17 = trunc i8 %16 to i1
  %18 = zext i1 %17 to i8
  store i8 %18, ptr %15, align 8
  ret void
}