; Function Attrs: mustprogress nofree norecurse nosync nounwind willreturn memory(argmem: write) uwtable
define void @_ZN5faiss15IDSelectorRangeC2Ellb(ptr nocapture noundef nonnull writeonly align 8 dereferenceable(25) %0, i64 noundef %1, i64 noundef %2, i1 noundef zeroext %3) unnamed_addr #3 align 2 {
  %5 = zext i1 %3 to i8
  store ptr getelementptr inbounds ({ [5 x ptr] }, ptr @_ZTVN5faiss15IDSelectorRangeE, i64 0, i32 0, i64 2), ptr %0, align 8
  %6 = getelementptr inbounds i8, ptr %0, i64 8
  store i64 %1, ptr %6, align 8
  %7 = getelementptr inbounds i8, ptr %0, i64 16
  store i64 %2, ptr %7, align 8
  %8 = getelementptr inbounds i8, ptr %0, i64 24
  store i8 %5, ptr %8, align 8
  ret void
}